target datalayout = "e-m:e-p270:32:32-p271:32:32-p272:64:64-i64:64-i128:128-f80:128-n8:16:32:64-S128"
target triple = "x86_64-pc-linux-gnu"

%struct.mbedtls_ssl_context = type { ptr, i32, i32, i32, i32, i32, ptr, ptr, ptr, ptr, ptr, ptr, ptr, ptr, ptr, ptr, ptr, ptr, ptr, ptr, ptr, ptr, ptr, ptr, ptr, ptr, ptr, ptr, ptr, ptr, ptr, ptr, ptr, i32, i64, i64, i16, i64, i64, i64, i64, i32, i32, i8, i8, i32, i8, ptr, ptr, ptr, ptr, ptr, ptr, ptr, i32, i64, i64, [8 x i8], i16, ptr, ptr, ptr, i64, i32, i64, [12 x i8], [12 x i8], [32 x i8], i8, i8, ptr, ptr, %union.mbedtls_ssl_user_data_t }
%union.mbedtls_ssl_user_data_t = type { i64 }

; Function Attrs: nounwind uwtable
define hidden i32 @mbedtls_ssl_handle_pending_alert(ptr noundef %0) #0 {
  %2 = alloca i32, align 4
  %3 = alloca ptr, align 8
  %4 = alloca i32, align 4
  %5 = alloca i32, align 4
  store ptr %0, ptr %3, align 8, !tbaa !3
  call void @llvm.lifetime.start.p0(i64 4, ptr %4) #11
  %6 = load ptr, ptr %3, align 8, !tbaa !3
  %7 = getelementptr inbounds nuw %struct.mbedtls_ssl_context, ptr %6, i32 0, i32 43
  %8 = load i8, ptr %7, align 8, !tbaa !178
  %9 = zext i8 %8 to i32
  %10 = icmp eq i32 %9, 0
  br i1 %10, label %11, label %12

11:                                               ; preds = %1
  store i32 0, ptr %2, align 4
  store i32 1, ptr %5, align 4
  br label %32

12:                                               ; preds = %1
  %13 = load ptr, ptr %3, align 8, !tbaa !3
  %14 = load ptr, ptr %3, align 8, !tbaa !3
  %15 = getelementptr inbounds nuw %struct.mbedtls_ssl_context, ptr %14, i32 0, i32 44
  %16 = load i8, ptr %15, align 1, !tbaa !179
  %17 = call i32 @mbedtls_ssl_send_alert_message(ptr noundef %13, i8 noundef zeroext 2, i8 noundef zeroext %16)
  store i32 %17, ptr %4, align 4, !tbaa !8
  %18 = load i32, ptr %4, align 4, !tbaa !8
  %19 = icmp ne i32 %18, -26752
  br i1 %19, label %20, label %23

20:                                               ; preds = %12
  %21 = load ptr, ptr %3, align 8, !tbaa !3
  %22 = getelementptr inbounds nuw %struct.mbedtls_ssl_context, ptr %21, i32 0, i32 43
  store i8 0, ptr %22, align 8, !tbaa !178
  br label %23

23:                                               ; preds = %20, %12
  %24 = load i32, ptr %4, align 4, !tbaa !8
  %25 = icmp ne i32 %24, 0
  br i1 %25, label %26, label %28

26:                                               ; preds = %23
  %27 = load i32, ptr %4, align 4, !tbaa !8
  store i32 %27, ptr %2, align 4
  store i32 1, ptr %5, align 4
  br label %32

28:                                               ; preds = %23
  %29 = load ptr, ptr %3, align 8, !tbaa !3
  %30 = getelementptr inbounds nuw %struct.mbedtls_ssl_context, ptr %29, i32 0, i32 45
  %31 = load i32, ptr %30, align 4, !tbaa !180
  store i32 %31, ptr %2, align 4
  store i32 1, ptr %5, align 4
  br label %32

32:                                               ; preds = %28, %26, %11
  call void @llvm.lifetime.end.p0(i64 4, ptr %4) #11
  %33 = load i32, ptr %2, align 4
  ret i32 %33
}