; Function Attrs: nounwind uwtable
define hidden i32 @mbedtls_ssl_handle_pending_alert(ptr noundef %0) local_unnamed_addr #0 {
  %2 = getelementptr inbounds nuw i8, ptr %0, i64 320
  %3 = load i8, ptr %2, align 8, !tbaa !169
  %4 = icmp eq i8 %3, 0
  br i1 %4, label %13, label %5

5:                                                ; preds = %1
  %6 = getelementptr inbounds nuw i8, ptr %0, i64 321
  %7 = load i8, ptr %6, align 1, !tbaa !170
  %8 = tail call i32 @mbedtls_ssl_send_alert_message(ptr noundef nonnull %0, i8 noundef zeroext 2, i8 noundef zeroext %7)
  %cond = icmp eq i32 %8, -26752
  br i1 %cond, label %13, label %9

9:                                                ; preds = %5
  store i8 0, ptr %2, align 8, !tbaa !169
  %.not9 = icmp eq i32 %8, 0
  br i1 %.not9, label %10, label %13

10:                                               ; preds = %9
  %11 = getelementptr inbounds nuw i8, ptr %0, i64 324
  %12 = load i32, ptr %11, align 4, !tbaa !171
  br label %13

13:                                               ; preds = %5, %9, %1, %10
  %.0 = phi i32 [ %12, %10 ], [ 0, %1 ], [ -26752, %5 ], [ %8, %9 ]
  ret i32 %.0
}